target datalayout = "e-m:e-p270:32:32-p271:32:32-p272:64:64-i64:64-i128:128-f80:128-n8:16:32:64-S128"
target triple = "x86_64-pc-linux-gnu"

%struct.AVFilterContext = type { ptr, ptr, ptr, ptr, ptr, i32, ptr, ptr, i32, ptr, ptr, i32, i32, ptr, ptr, ptr, ptr, i32, ptr, i32, i32 }
%struct.VAAPIVPPContext = type { ptr, ptr, ptr, i32, i32, i32, ptr, ptr, %struct._VARectangle, i32, i32, i32, [10 x i32], i32, i32, ptr, ptr }
%struct._VARectangle = type { i16, i16, i16, i16 }
%struct.AVFilterLink = type { ptr, ptr, ptr, ptr, i32, i32, i32, i32, %struct.AVRational, i32, i32, i32, %struct.AVChannelLayout, %struct.AVRational, ptr, i32, %struct.AVFilterFormatsConfig, %struct.AVFilterFormatsConfig }
%struct.AVChannelLayout = type { i32, i32, %union.anon, ptr }
%union.anon = type { i64 }
%struct.AVRational = type { i32, i32 }
%struct.AVFilterFormatsConfig = type { ptr, ptr, ptr, ptr, ptr }
%struct.FilterLink = type { %struct.AVFilterLink, ptr, i64, i64, i32, i32, i64, i64, i64, i64, %struct.AVRational, ptr }
%struct.AVBufferRef = type { ptr, ptr, i64 }

@.str = private unnamed_addr constant [77 x i8] c"A hardware frames reference is required to associate the processing device.\0A\00", align 1
@.str.1 = private unnamed_addr constant [41 x i8] c"A input frames reference create failed.\0A\00", align 1

; Function Attrs: inlinehint nounwind uwtable
define internal ptr @ff_filter_link(ptr noundef %0) #3 {
  %2 = alloca ptr, align 8
  store ptr %0, ptr %2, align 8, !tbaa !40
  %3 = load ptr, ptr %2, align 8, !tbaa !40
  ret ptr %3
}

; Function Attrs: nounwind uwtable
define i32 @ff_vaapi_vpp_config_input(ptr noundef %0) #0 {
  %2 = alloca i32, align 4
  %3 = alloca ptr, align 8
  %4 = alloca ptr, align 8
  %5 = alloca ptr, align 8
  %6 = alloca ptr, align 8
  %7 = alloca i32, align 4
  store ptr %0, ptr %3, align 8, !tbaa !40
  call void @llvm.lifetime.start.p0(i64 8, ptr %4) #7
  %8 = load ptr, ptr %3, align 8, !tbaa !40
  %9 = call ptr @ff_filter_link(ptr noundef %8)
  store ptr %9, ptr %4, align 8, !tbaa !42
  call void @llvm.lifetime.start.p0(i64 8, ptr %5) #7
  %10 = load ptr, ptr %3, align 8, !tbaa !40
  %11 = getelementptr inbounds nuw %struct.AVFilterLink, ptr %10, i32 0, i32 2
  %12 = load ptr, ptr %11, align 8, !tbaa !44
  store ptr %12, ptr %5, align 8, !tbaa !4
  call void @llvm.lifetime.start.p0(i64 8, ptr %6) #7
  %13 = load ptr, ptr %5, align 8, !tbaa !4
  %14 = getelementptr inbounds nuw %struct.AVFilterContext, ptr %13, i32 0, i32 9
  %15 = load ptr, ptr %14, align 8, !tbaa !14
  store ptr %15, ptr %6, align 8, !tbaa !25
  %16 = load ptr, ptr %6, align 8, !tbaa !25
  %17 = getelementptr inbounds nuw %struct.VAAPIVPPContext, ptr %16, i32 0, i32 16
  %18 = load ptr, ptr %17, align 8, !tbaa !52
  %19 = icmp ne ptr %18, null
  br i1 %19, label %20, label %25

20:                                               ; preds = %1
  %21 = load ptr, ptr %6, align 8, !tbaa !25
  %22 = getelementptr inbounds nuw %struct.VAAPIVPPContext, ptr %21, i32 0, i32 16
  %23 = load ptr, ptr %22, align 8, !tbaa !52
  %24 = load ptr, ptr %5, align 8, !tbaa !4
  call void %23(ptr noundef %24)
  br label %25

25:                                               ; preds = %20, %1
  %26 = load ptr, ptr %4, align 8, !tbaa !42
  %27 = getelementptr inbounds nuw %struct.FilterLink, ptr %26, i32 0, i32 11
  %28 = load ptr, ptr %27, align 8, !tbaa !53
  %29 = icmp ne ptr %28, null
  br i1 %29, label %32, label %30

30:                                               ; preds = %25
  %31 = load ptr, ptr %5, align 8, !tbaa !4
  call void (ptr, i32, ptr, ...) @av_log(ptr noundef %31, i32 noundef 16, ptr noundef @.str)
  store i32 -22, ptr %2, align 4
  store i32 1, ptr %7, align 4
  br label %53

32:                                               ; preds = %25
  %33 = load ptr, ptr %4, align 8, !tbaa !42
  %34 = getelementptr inbounds nuw %struct.FilterLink, ptr %33, i32 0, i32 11
  %35 = load ptr, ptr %34, align 8, !tbaa !53
  %36 = call ptr @av_buffer_ref(ptr noundef %35)
  %37 = load ptr, ptr %6, align 8, !tbaa !25
  %38 = getelementptr inbounds nuw %struct.VAAPIVPPContext, ptr %37, i32 0, i32 6
  store ptr %36, ptr %38, align 8, !tbaa !56
  %39 = load ptr, ptr %6, align 8, !tbaa !25
  %40 = getelementptr inbounds nuw %struct.VAAPIVPPContext, ptr %39, i32 0, i32 6
  %41 = load ptr, ptr %40, align 8, !tbaa !56
  %42 = icmp ne ptr %41, null
  br i1 %42, label %45, label %43

43:                                               ; preds = %32
  %44 = load ptr, ptr %5, align 8, !tbaa !4
  call void (ptr, i32, ptr, ...) @av_log(ptr noundef %44, i32 noundef 16, ptr noundef @.str.1)
  store i32 -12, ptr %2, align 4
  store i32 1, ptr %7, align 4
  br label %53

45:                                               ; preds = %32
  %46 = load ptr, ptr %6, align 8, !tbaa !25
  %47 = getelementptr inbounds nuw %struct.VAAPIVPPContext, ptr %46, i32 0, i32 6
  %48 = load ptr, ptr %47, align 8, !tbaa !56
  %49 = getelementptr inbounds nuw %struct.AVBufferRef, ptr %48, i32 0, i32 1
  %50 = load ptr, ptr %49, align 8, !tbaa !57
  %51 = load ptr, ptr %6, align 8, !tbaa !25
  %52 = getelementptr inbounds nuw %struct.VAAPIVPPContext, ptr %51, i32 0, i32 7
  store ptr %50, ptr %52, align 8, !tbaa !60
  store i32 0, ptr %2, align 4
  store i32 1, ptr %7, align 4
  br label %53

53:                                               ; preds = %45, %43, %30
  call void @llvm.lifetime.end.p0(i64 8, ptr %6) #7
  call void @llvm.lifetime.end.p0(i64 8, ptr %5) #7
  call void @llvm.lifetime.end.p0(i64 8, ptr %4) #7
  %54 = load i32, ptr %2, align 4
  ret i32 %54
}