; Function Attrs: nounwind uwtable
define range(i32 -22, 1) i32 @ff_vaapi_vpp_config_input(ptr noundef readonly captures(none) %0) local_unnamed_addr #0 {
  %2 = getelementptr inbounds nuw i8, ptr %0, i64 16
  %3 = load ptr, ptr %2, align 8, !tbaa !34
  %4 = getelementptr inbounds nuw i8, ptr %3, i64 72
  %5 = load ptr, ptr %4, align 8, !tbaa !4
  %6 = getelementptr inbounds nuw i8, ptr %5, i64 136
  %7 = load ptr, ptr %6, align 8, !tbaa !43
  %.not = icmp eq ptr %7, null
  br i1 %.not, label %9, label %8

8:                                                ; preds = %1
  tail call void %7(ptr noundef nonnull %3) #7
  br label %9

9:                                                ; preds = %8, %1
  %10 = getelementptr inbounds nuw i8, ptr %0, i64 272
  %11 = load ptr, ptr %10, align 8, !tbaa !44
  %.not17 = icmp eq ptr %11, null
  br i1 %.not17, label %12, label %13

12:                                               ; preds = %9
  tail call void (ptr, i32, ptr, ...) @av_log(ptr noundef nonnull %3, i32 noundef 16, ptr noundef nonnull @.str) #7
  br label %21

13:                                               ; preds = %9
  %14 = tail call ptr @av_buffer_ref(ptr noundef nonnull %11) #7
  %15 = getelementptr inbounds nuw i8, ptr %5, i64 40
  store ptr %14, ptr %15, align 8, !tbaa !47
  %.not18 = icmp eq ptr %14, null
  br i1 %.not18, label %16, label %17

16:                                               ; preds = %13
  tail call void (ptr, i32, ptr, ...) @av_log(ptr noundef nonnull %3, i32 noundef 16, ptr noundef nonnull @.str.1) #7
  br label %21

17:                                               ; preds = %13
  %18 = getelementptr inbounds nuw i8, ptr %14, i64 8
  %19 = load ptr, ptr %18, align 8, !tbaa !48
  %20 = getelementptr inbounds nuw i8, ptr %5, i64 48
  store ptr %19, ptr %20, align 8, !tbaa !51
  br label %21

21:                                               ; preds = %17, %16, %12
  %.0 = phi i32 [ 0, %17 ], [ -12, %16 ], [ -22, %12 ]
  ret i32 %.0
}